target datalayout = "e-m:e-p270:32:32-p271:32:32-p272:64:64-i64:64-i128:128-f80:128-n8:16:32:64-S128"
target triple = "x86_64-pc-linux-gnu"

%class.Node = type <{ ptr, ptr, ptr, i32, i32, i32, i32, i32, i32, i32, [4 x i8] }>

; Function Attrs: mustprogress nounwind uwtable
define linkonce_odr hidden noundef ptr @_ZNK4Node22as_OuterStripMinedLoopEv(ptr noundef nonnull align 8 dereferenceable(52) %0) #1 comdat align 2 {
  %2 = alloca ptr, align 8
  store ptr %0, ptr %2, align 8
  %3 = load ptr, ptr %2, align 8
  ret ptr %3
}

; Function Attrs: mustprogress nounwind uwtable
define linkonce_odr hidden noundef zeroext i1 @_ZNK4Node22is_OuterStripMinedLoopEv(ptr noundef nonnull align 8 dereferenceable(52) %0) #1 comdat align 2 {
  %2 = alloca ptr, align 8
  store ptr %0, ptr %2, align 8
  %3 = load ptr, ptr %2, align 8
  %4 = getelementptr inbounds %class.Node, ptr %3, i32 0, i32 8
  %5 = load i32, ptr %4, align 4
  %6 = and i32 %5, 1023
  %7 = icmp eq i32 %6, 608
  ret i1 %7
}

; Function Attrs: mustprogress nounwind uwtable
define linkonce_odr hidden noundef zeroext i1 @_ZNK4Node6is_topEv(ptr noundef nonnull align 8 dereferenceable(52) %0) #1 comdat align 2 {
  %2 = alloca ptr, align 8
  store ptr %0, ptr %2, align 8
  %3 = load ptr, ptr %2, align 8
  %4 = getelementptr inbounds %class.Node, ptr %3, i32 0, i32 2
  %5 = load ptr, ptr %4, align 8
  %6 = icmp eq ptr %5, null
  ret i1 %6
}

; Function Attrs: mustprogress nounwind uwtable
define linkonce_odr hidden noundef ptr @_ZNK4Node2inEj(ptr noundef nonnull align 8 dereferenceable(52) %0, i32 noundef %1) #1 comdat align 2 {
  %3 = alloca ptr, align 8
  %4 = alloca i32, align 4
  store ptr %0, ptr %3, align 8
  store i32 %1, ptr %4, align 4
  %5 = load ptr, ptr %3, align 8
  %6 = getelementptr inbounds %class.Node, ptr %5, i32 0, i32 1
  %7 = load ptr, ptr %6, align 8
  %8 = load i32, ptr %4, align 4
  %9 = zext i32 %8 to i64
  %10 = getelementptr inbounds ptr, ptr %7, i64 %9
  %11 = load ptr, ptr %10, align 8
  ret ptr %11
}

; Function Attrs: mustprogress nounwind uwtable
define hidden noundef ptr @_ZNK15CountedLoopNode10outer_loopEv(ptr noundef nonnull align 8 dereferenceable(92) %0) #1 align 2 {
  %2 = alloca ptr, align 8
  %3 = alloca ptr, align 8
  %4 = alloca ptr, align 8
  store ptr %0, ptr %3, align 8
  %5 = load ptr, ptr %3, align 8
  %6 = call noundef ptr @_ZNK4Node2inEj(ptr noundef nonnull align 8 dereferenceable(52) %5, i32 noundef 1)
  store ptr %6, ptr %4, align 8
  %7 = load ptr, ptr %4, align 8
  %8 = icmp eq ptr %7, null
  br i1 %8, label %15, label %9

9:                                                ; preds = %1
  %10 = load ptr, ptr %4, align 8
  %11 = call noundef zeroext i1 @_ZNK4Node6is_topEv(ptr noundef nonnull align 8 dereferenceable(52) %10)
  br i1 %11, label %15, label %12

12:                                               ; preds = %9
  %13 = load ptr, ptr %4, align 8
  %14 = call noundef zeroext i1 @_ZNK4Node22is_OuterStripMinedLoopEv(ptr noundef nonnull align 8 dereferenceable(52) %13)
  br i1 %14, label %16, label %15

15:                                               ; preds = %12, %9, %1
  store ptr null, ptr %2, align 8
  br label %19

16:                                               ; preds = %12
  %17 = load ptr, ptr %4, align 8
  %18 = call noundef ptr @_ZNK4Node22as_OuterStripMinedLoopEv(ptr noundef nonnull align 8 dereferenceable(52) %17)
  store ptr %18, ptr %2, align 8
  br label %19

19:                                               ; preds = %16, %15
  %20 = load ptr, ptr %2, align 8
  ret ptr %20
}