; Function Attrs: mustprogress nofree norecurse nosync nounwind willreturn memory(read, inaccessiblemem: none) uwtable
define hidden noundef ptr @_ZNK15CountedLoopNode10outer_loopEv(ptr nocapture noundef nonnull readonly align 8 dereferenceable(92) %0) local_unnamed_addr #3 align 2 {
  %2 = getelementptr inbounds i8, ptr %0, i64 8
  %3 = load ptr, ptr %2, align 8
  %4 = getelementptr inbounds i8, ptr %3, i64 8
  %5 = load ptr, ptr %4, align 8
  %6 = icmp eq ptr %5, null
  br i1 %6, label %16, label %7

7:                                                ; preds = %1
  %8 = getelementptr inbounds i8, ptr %5, i64 16
  %9 = load ptr, ptr %8, align 8
  %10 = icmp eq ptr %9, null
  br i1 %10, label %16, label %11

11:                                               ; preds = %7
  %12 = getelementptr inbounds i8, ptr %5, i64 44
  %13 = load i32, ptr %12, align 4
  %14 = and i32 %13, 1023
  %15 = icmp eq i32 %14, 608
  %spec.select = select i1 %15, ptr %5, ptr null
  br label %16

16:                                               ; preds = %11, %1, %7
  %.0 = phi ptr [ null, %7 ], [ null, %1 ], [ %spec.select, %11 ]
  ret ptr %.0
}